
keyboard.elf:     file format elf32-avr

Sections:
Idx Name          Size      VMA       LMA       File off  Algn
  0 .text         0000050c  00000000  00000000  00000094  2**1
                  CONTENTS, ALLOC, LOAD, READONLY, CODE
  1 .data         00000002  00800060  0000050c  000005a0  2**0
                  CONTENTS, ALLOC, LOAD, DATA
  2 .bss          00000057  00800062  00800062  000005a2  2**0
                  ALLOC
  3 .comment      00000011  00000000  00000000  000005a2  2**0
                  CONTENTS, READONLY
  4 .debug_aranges 000000e0  00000000  00000000  000005b8  2**3
                  CONTENTS, READONLY, DEBUGGING
  5 .debug_info   00000983  00000000  00000000  00000698  2**0
                  CONTENTS, READONLY, DEBUGGING
  6 .debug_abbrev 0000042a  00000000  00000000  0000101b  2**0
                  CONTENTS, READONLY, DEBUGGING
  7 .debug_line   000003c3  00000000  00000000  00001445  2**0
                  CONTENTS, READONLY, DEBUGGING
  8 .debug_frame  00000120  00000000  00000000  00001808  2**2
                  CONTENTS, READONLY, DEBUGGING
  9 .debug_str    000001f3  00000000  00000000  00001928  2**0
                  CONTENTS, READONLY, DEBUGGING
 10 .debug_loc    000003e2  00000000  00000000  00001b1b  2**0
                  CONTENTS, READONLY, DEBUGGING
 11 .debug_ranges 00000010  00000000  00000000  00001efd  2**0
                  CONTENTS, READONLY, DEBUGGING

Disassembly of section .text:

00000000 <__vectors>:
   0:	9a c0       	rjmp	.+308    	; 0x136 <__ctors_end>
   2:	f1 c0       	rjmp	.+482    	; 0x1e6 <__vector_1>
   4:	b1 c0       	rjmp	.+354    	; 0x168 <__bad_interrupt>
   6:	b0 c0       	rjmp	.+352    	; 0x168 <__bad_interrupt>
   8:	af c0       	rjmp	.+350    	; 0x168 <__bad_interrupt>
   a:	ae c0       	rjmp	.+348    	; 0x168 <__bad_interrupt>
   c:	ad c0       	rjmp	.+346    	; 0x168 <__bad_interrupt>
   e:	ac c0       	rjmp	.+344    	; 0x168 <__bad_interrupt>
  10:	ab c0       	rjmp	.+342    	; 0x168 <__bad_interrupt>
  12:	aa c0       	rjmp	.+340    	; 0x168 <__bad_interrupt>
  14:	a9 c0       	rjmp	.+338    	; 0x168 <__bad_interrupt>
  16:	a8 c0       	rjmp	.+336    	; 0x168 <__bad_interrupt>
  18:	a7 c0       	rjmp	.+334    	; 0x168 <__bad_interrupt>
  1a:	a6 c0       	rjmp	.+332    	; 0x168 <__bad_interrupt>
  1c:	a5 c0       	rjmp	.+330    	; 0x168 <__bad_interrupt>
  1e:	a4 c0       	rjmp	.+328    	; 0x168 <__bad_interrupt>
  20:	a3 c0       	rjmp	.+326    	; 0x168 <__bad_interrupt>
  22:	a2 c0       	rjmp	.+324    	; 0x168 <__bad_interrupt>
  24:	a1 c0       	rjmp	.+322    	; 0x168 <__bad_interrupt>

00000026 <__trampolines_end>:
  26:	0d 09       	sbc	r16, r13
  28:	0e 7e       	andi	r16, 0xEE	; 238
  2a:	15 51       	subi	r17, 0x15	; 21
  2c:	16 21       	and	r17, r6
  2e:	1a 5a       	subi	r17, 0xAA	; 170
  30:	1b 53       	subi	r17, 0x3B	; 59
  32:	1c 41       	sbci	r17, 0x1C	; 28
  34:	1d 57       	subi	r17, 0x7D	; 125
  36:	1e 40       	sbci	r17, 0x0E	; 14
  38:	21 43       	sbci	r18, 0x31	; 49
  3a:	22 58       	subi	r18, 0x82	; 130
  3c:	23 44       	sbci	r18, 0x43	; 67
  3e:	24 45       	sbci	r18, 0x54	; 84
  40:	25 24       	eor	r2, r5
  42:	26 23       	and	r18, r22
  44:	29 20       	and	r2, r9
  46:	2a 56       	subi	r18, 0x6A	; 106
  48:	2b 46       	sbci	r18, 0x6B	; 107
  4a:	2c 54       	subi	r18, 0x4C	; 76
  4c:	2d 52       	subi	r18, 0x2D	; 45
  4e:	2e 25       	eor	r18, r14
  50:	31 4e       	sbci	r19, 0xE1	; 225
  52:	32 42       	sbci	r19, 0x22	; 34
  54:	33 48       	sbci	r19, 0x83	; 131
  56:	34 47       	sbci	r19, 0x74	; 116
  58:	35 59       	subi	r19, 0x95	; 149
  5a:	36 5e       	subi	r19, 0xE6	; 230
  5c:	39 4c       	sbci	r19, 0xC9	; 201
  5e:	3a 4d       	sbci	r19, 0xDA	; 218
  60:	3b 4a       	sbci	r19, 0xAB	; 171
  62:	3c 55       	subi	r19, 0x5C	; 92
  64:	3d 2f       	mov	r19, r29
  66:	3e 2a       	or	r3, r30
  68:	41 3c       	cpi	r20, 0xC1	; 193
  6a:	42 4b       	sbci	r20, 0xB2	; 178
  6c:	43 49       	sbci	r20, 0x93	; 147
  6e:	44 4f       	sbci	r20, 0xF4	; 244
  70:	45 29       	or	r20, r5
  72:	46 28       	or	r4, r6
  74:	49 3e       	cpi	r20, 0xE9	; 233
  76:	4a 3f       	cpi	r20, 0xFA	; 250
  78:	4b 4c       	sbci	r20, 0xCB	; 203
  7a:	4c 3a       	cpi	r20, 0xAC	; 172
  7c:	4d 50       	subi	r20, 0x0D	; 13
  7e:	4e 5f       	subi	r20, 0xFE	; 254
  80:	52 22       	and	r5, r18
  82:	54 7b       	andi	r21, 0xB4	; 180
  84:	55 2b       	or	r21, r21
  86:	5a 0d       	add	r21, r10
  88:	5b 7d       	andi	r21, 0xDB	; 219
  8a:	5d 7c       	andi	r21, 0xCD	; 205
  8c:	61 3e       	cpi	r22, 0xE1	; 225
  8e:	66 08       	sbc	r6, r6
  90:	69 31       	cpi	r22, 0x19	; 25
  92:	6b 34       	cpi	r22, 0x4B	; 75
  94:	6c 37       	cpi	r22, 0x7C	; 124
  96:	70 30       	cpi	r23, 0x00	; 0
  98:	71 2e       	mov	r7, r17
  9a:	72 32       	cpi	r23, 0x22	; 34
  9c:	73 35       	cpi	r23, 0x53	; 83
  9e:	74 36       	cpi	r23, 0x64	; 100
  a0:	75 38       	cpi	r23, 0x85	; 133
  a2:	79 2b       	or	r23, r25
  a4:	7a 33       	cpi	r23, 0x3A	; 58
  a6:	7b 2d       	mov	r23, r11
  a8:	7c 2a       	or	r7, r28
  aa:	7d 39       	cpi	r23, 0x9D	; 157
	...

000000ae <unshifted>:
  ae:	0d 09 0e 60 15 71 16 31 1a 7a 1b 73 1c 61 1d 77     ...`.q.1.z.s.a.w
  be:	1e 32 21 63 22 78 23 64 24 65 25 34 26 33 29 20     .2!c"x#d$e%4&3) 
  ce:	2a 76 2b 66 2c 74 2d 72 2e 35 31 6e 32 62 33 68     *v+f,t-r.51n2b3h
  de:	34 67 35 79 36 36 39 2c 3a 6d 3b 6a 3c 75 3d 37     4g5y669,:m;j<u=7
  ee:	3e 38 41 2c 42 6b 43 69 44 6f 45 30 46 39 49 2e     >8A,BkCiDoE0F9I.
  fe:	4a 2f 4b 6c 4c 3b 4d 70 4e 2d 52 27 54 5b 55 3d     J/KlL;MpN-R'T[U=
 10e:	5a 0d 5b 5d 5d 5c 61 3c 66 08 69 31 6b 34 6c 37     Z.[]]\a<f.i1k4l7
 11e:	70 30 71 2e 72 32 73 35 74 36 75 38 79 2b 7a 33     p0q.r2s5t6u8y+z3
 12e:	7b 2d 7c 2a 7d 39 00 00                             {-|*}9..

00000136 <__ctors_end>:
 136:	11 24       	eor	r1, r1
 138:	1f be       	out	0x3f, r1	; 63
 13a:	cf ed       	ldi	r28, 0xDF	; 223
 13c:	cd bf       	out	0x3d, r28	; 61

0000013e <__do_copy_data>:
 13e:	10 e0       	ldi	r17, 0x00	; 0
 140:	a0 e6       	ldi	r26, 0x60	; 96
 142:	b0 e0       	ldi	r27, 0x00	; 0
 144:	ec e0       	ldi	r30, 0x0C	; 12
 146:	f5 e0       	ldi	r31, 0x05	; 5
 148:	02 c0       	rjmp	.+4      	; 0x14e <__do_copy_data+0x10>
 14a:	05 90       	lpm	r0, Z+
 14c:	0d 92       	st	X+, r0
 14e:	a2 36       	cpi	r26, 0x62	; 98
 150:	b1 07       	cpc	r27, r17
 152:	d9 f7       	brne	.-10     	; 0x14a <__do_copy_data+0xc>

00000154 <__do_clear_bss>:
 154:	20 e0       	ldi	r18, 0x00	; 0
 156:	a2 e6       	ldi	r26, 0x62	; 98
 158:	b0 e0       	ldi	r27, 0x00	; 0
 15a:	01 c0       	rjmp	.+2      	; 0x15e <.do_clear_bss_start>

0000015c <.do_clear_bss_loop>:
 15c:	1d 92       	st	X+, r1

0000015e <.do_clear_bss_start>:
 15e:	a9 3b       	cpi	r26, 0xB9	; 185
 160:	b2 07       	cpc	r27, r18
 162:	e1 f7       	brne	.-8      	; 0x15c <.do_clear_bss_loop>
 164:	91 d1       	rcall	.+802    	; 0x488 <main>
 166:	d0 c1       	rjmp	.+928    	; 0x508 <_exit>

00000168 <__bad_interrupt>:
 168:	4b cf       	rjmp	.-362    	; 0x0 <__vectors>

0000016a <print_hexbyte>:
#include <inttypes.h>
#include "gpr.h"

void print_hexbyte(uint8_t i)
{
 16a:	cf 93       	push	r28
 16c:	df 93       	push	r29
	uint8_t h, l;

	h = i & 0xF0;			  // High nibble
	h = h >> 4;
 16e:	98 2f       	mov	r25, r24
 170:	92 95       	swap	r25
 172:	9f 70       	andi	r25, 0x0F	; 15
	h = h + '0';
 174:	d0 e3       	ldi	r29, 0x30	; 48
 176:	d9 0f       	add	r29, r25

	if (h > '9')
 178:	da 33       	cpi	r29, 0x3A	; 58
 17a:	10 f0       	brcs	.+4      	; 0x180 <print_hexbyte+0x16>
		h = h + 7;
 17c:	d7 e3       	ldi	r29, 0x37	; 55
 17e:	d9 0f       	add	r29, r25

	l = (i & 0x0F)+'0';		  // Low nibble
 180:	8f 70       	andi	r24, 0x0F	; 15
 182:	c0 e3       	ldi	r28, 0x30	; 48
 184:	c8 0f       	add	r28, r24
	if (l > '9')
 186:	ca 33       	cpi	r28, 0x3A	; 58
 188:	10 f0       	brcs	.+4      	; 0x18e <print_hexbyte+0x24>
		l = l + 7;
 18a:	c7 e3       	ldi	r28, 0x37	; 55
 18c:	c8 0f       	add	r28, r24

	putchar('0');
 18e:	80 e3       	ldi	r24, 0x30	; 48
 190:	90 e0       	ldi	r25, 0x00	; 0
 192:	82 d1       	rcall	.+772    	; 0x498 <putchar>
	putchar('x');
 194:	88 e7       	ldi	r24, 0x78	; 120
 196:	90 e0       	ldi	r25, 0x00	; 0
 198:	7f d1       	rcall	.+766    	; 0x498 <putchar>
	putchar(h);
 19a:	8d 2f       	mov	r24, r29
 19c:	90 e0       	ldi	r25, 0x00	; 0
 19e:	7c d1       	rcall	.+760    	; 0x498 <putchar>
	putchar(l);
 1a0:	8c 2f       	mov	r24, r28
 1a2:	90 e0       	ldi	r25, 0x00	; 0
 1a4:	79 d1       	rcall	.+754    	; 0x498 <putchar>
}
 1a6:	df 91       	pop	r29
 1a8:	cf 91       	pop	r28
 1aa:	08 95       	ret

000001ac <init_kb>:
volatile uint8_t sc_buffcnt;


void init_kb(void)
{
	kb_inptr =  kb_buffer;					  // Initialize buffer
 1ac:	8c e9       	ldi	r24, 0x9C	; 156
 1ae:	90 e0       	ldi	r25, 0x00	; 0
 1b0:	90 93 ad 00 	sts	0x00AD, r25
 1b4:	80 93 ac 00 	sts	0x00AC, r24
	kb_outptr = kb_buffer;
 1b8:	90 93 af 00 	sts	0x00AF, r25
 1bc:	80 93 ae 00 	sts	0x00AE, r24
	kb_buffcnt = 0;
 1c0:	10 92 67 00 	sts	0x0067, r1

	sc_inptr =  sc_buffer;					  // Initialize buffer
 1c4:	8a e6       	ldi	r24, 0x6A	; 106
 1c6:	90 e0       	ldi	r25, 0x00	; 0
 1c8:	90 93 69 00 	sts	0x0069, r25
 1cc:	80 93 68 00 	sts	0x0068, r24
	sc_outptr = sc_buffer;
 1d0:	90 93 9b 00 	sts	0x009B, r25
 1d4:	80 93 9a 00 	sts	0x009A, r24
	sc_buffcnt = 0;
 1d8:	10 92 b0 00 	sts	0x00B0, r1

	MCUCR 	= (1 << ISC01);					  // INT0 interrupt on falling edge
 1dc:	82 e0       	ldi	r24, 0x02	; 2
 1de:	85 bf       	out	0x35, r24	; 53
	GIMSK	= (1 << INT0);						  // Enable INT0 interrupt
 1e0:	80 e4       	ldi	r24, 0x40	; 64
 1e2:	8b bf       	out	0x3b, r24	; 59
 1e4:	08 95       	ret

000001e6 <__vector_1>:




ISR (INT0_vect)
{
 1e6:	1f 92       	push	r1
 1e8:	0f 92       	push	r0
 1ea:	0f b6       	in	r0, 0x3f	; 63
 1ec:	0f 92       	push	r0
 1ee:	11 24       	eor	r1, r1
 1f0:	2f 93       	push	r18
 1f2:	8f 93       	push	r24
 1f4:	9f 93       	push	r25
 1f6:	ef 93       	push	r30
 1f8:	ff 93       	push	r31
	static uint8_t data = 0;				  // Holds the received scan code
	static uint8_t bitcount = 11;			  // 0 = neg.  1 = pos.

	if(bitcount < 11 && bitcount > 2)		  // Bit 3 to 10 is data. Parity bit,
 1fa:	90 91 60 00 	lds	r25, 0x0060
 1fe:	8d ef       	ldi	r24, 0xFD	; 253
 200:	89 0f       	add	r24, r25
 202:	88 30       	cpi	r24, 0x08	; 8
 204:	50 f4       	brcc	.+20     	; 0x21a <__vector_1+0x34>
	{										  // start and stop bits are ignored.
		data = (data >> 1);
 206:	80 91 65 00 	lds	r24, 0x0065
 20a:	86 95       	lsr	r24
 20c:	80 93 65 00 	sts	0x0065, r24
		if(PIND & (1 << DATAPIN))
 210:	83 9b       	sbis	0x10, 3	; 16
 212:	03 c0       	rjmp	.+6      	; 0x21a <__vector_1+0x34>
			data = data | 0x80;				  // Store a '1'
 214:	80 68       	ori	r24, 0x80	; 128
 216:	80 93 65 00 	sts	0x0065, r24
	}

	if(--bitcount == 0)						  // All bits received
 21a:	8f ef       	ldi	r24, 0xFF	; 255
 21c:	89 0f       	add	r24, r25
 21e:	80 93 60 00 	sts	0x0060, r24
 222:	81 11       	cpse	r24, r1
 224:	26 c0       	rjmp	.+76     	; 0x272 <__vector_1+0x8c>
	{
		bitcount = 11;
 226:	8b e0       	ldi	r24, 0x0B	; 11
 228:	80 93 60 00 	sts	0x0060, r24

		
		if (sc_buffcnt < SC_BUFF_SIZE)			  // If buffer not full
 22c:	80 91 b0 00 	lds	r24, 0x00B0
 230:	80 33       	cpi	r24, 0x30	; 48
 232:	f8 f4       	brcc	.+62     	; 0x272 <__vector_1+0x8c>
		{
			// Put scancode into buffer
			// Increment pointer
			*sc_inptr++ = data;
 234:	e0 91 68 00 	lds	r30, 0x0068
 238:	f0 91 69 00 	lds	r31, 0x0069
 23c:	cf 01       	movw	r24, r30
 23e:	01 96       	adiw	r24, 0x01	; 1
 240:	90 93 69 00 	sts	0x0069, r25
 244:	80 93 68 00 	sts	0x0068, r24
 248:	80 91 65 00 	lds	r24, 0x0065
 24c:	80 83       	st	Z, r24
			sc_buffcnt++;
 24e:	80 91 b0 00 	lds	r24, 0x00B0
 252:	8f 5f       	subi	r24, 0xFF	; 255
 254:	80 93 b0 00 	sts	0x00B0, r24

			// Pointer wrapping
			if (sc_inptr >= sc_buffer + SC_BUFF_SIZE)
 258:	80 91 68 00 	lds	r24, 0x0068
 25c:	90 91 69 00 	lds	r25, 0x0069
 260:	8a 59       	subi	r24, 0x9A	; 154
 262:	90 40       	sbci	r25, 0x00	; 0
 264:	30 f0       	brcs	.+12     	; 0x272 <__vector_1+0x8c>
				sc_inptr = sc_buffer;
 266:	8a e6       	ldi	r24, 0x6A	; 106
 268:	90 e0       	ldi	r25, 0x00	; 0
 26a:	90 93 69 00 	sts	0x0069, r25
 26e:	80 93 68 00 	sts	0x0068, r24
		}
		// decode(data);
	}
}
 272:	ff 91       	pop	r31
 274:	ef 91       	pop	r30
 276:	9f 91       	pop	r25
 278:	8f 91       	pop	r24
 27a:	2f 91       	pop	r18
 27c:	0f 90       	pop	r0
 27e:	0f be       	out	0x3f, r0	; 63
 280:	0f 90       	pop	r0
 282:	1f 90       	pop	r1
 284:	18 95       	reti

00000286 <put_kbbuff>:
void put_kbbuff(uint8_t c)
{
	// uint8_t tmp = SREG;
	// cli();

	if (kb_buffcnt < KB_BUFF_SIZE)			  // If buffer not full
 286:	90 91 67 00 	lds	r25, 0x0067
 28a:	90 31       	cpi	r25, 0x10	; 16
 28c:	f0 f4       	brcc	.+60     	; 0x2ca <put_kbbuff+0x44>
	{
		// Put character into buffer
		// Increment pointer
		*kb_inptr++ = c;
 28e:	e0 91 ac 00 	lds	r30, 0x00AC
 292:	f0 91 ad 00 	lds	r31, 0x00AD
 296:	9f 01       	movw	r18, r30
 298:	2f 5f       	subi	r18, 0xFF	; 255
 29a:	3f 4f       	sbci	r19, 0xFF	; 255
 29c:	30 93 ad 00 	sts	0x00AD, r19
 2a0:	20 93 ac 00 	sts	0x00AC, r18
 2a4:	80 83       	st	Z, r24
		kb_buffcnt++;
 2a6:	80 91 67 00 	lds	r24, 0x0067
 2aa:	8f 5f       	subi	r24, 0xFF	; 255
 2ac:	80 93 67 00 	sts	0x0067, r24

		// Pointer wrapping
		if (kb_inptr >= kb_buffer + KB_BUFF_SIZE)
 2b0:	80 91 ac 00 	lds	r24, 0x00AC
 2b4:	90 91 ad 00 	lds	r25, 0x00AD
 2b8:	8c 5a       	subi	r24, 0xAC	; 172
 2ba:	90 40       	sbci	r25, 0x00	; 0
 2bc:	30 f0       	brcs	.+12     	; 0x2ca <put_kbbuff+0x44>
			kb_inptr = kb_buffer;
 2be:	8c e9       	ldi	r24, 0x9C	; 156
 2c0:	90 e0       	ldi	r25, 0x00	; 0
 2c2:	90 93 ad 00 	sts	0x00AD, r25
 2c6:	80 93 ac 00 	sts	0x00AC, r24
 2ca:	08 95       	ret

000002cc <decode>:
{
	static uint8_t is_up = 0, mode = 0;
	static uint8_t shift = 0;
	uint8_t i, ch;

	if (!is_up)								  // Last data received was the up-key identifier
 2cc:	90 91 64 00 	lds	r25, 0x0064
 2d0:	91 11       	cpse	r25, r1
 2d2:	60 c0       	rjmp	.+192    	; 0x394 <decode+0xc8>
	{
		if(sc == 0xF0)						  // The up-key identifier
 2d4:	80 3f       	cpi	r24, 0xF0	; 240
 2d6:	21 f4       	brne	.+8      	; 0x2e0 <decode+0x14>
		{
			is_up = 1;
 2d8:	81 e0       	ldi	r24, 0x01	; 1
 2da:	80 93 64 00 	sts	0x0064, r24
 2de:	08 95       	ret
		}

		else if(sc == 0x12 || sc == 0x59)	  // Left SHIFT or Right SHIFT
 2e0:	82 31       	cpi	r24, 0x12	; 18
 2e2:	11 f0       	breq	.+4      	; 0x2e8 <decode+0x1c>
 2e4:	89 35       	cpi	r24, 0x59	; 89
 2e6:	21 f4       	brne	.+8      	; 0x2f0 <decode+0x24>
		{
			shift = 1;
 2e8:	81 e0       	ldi	r24, 0x01	; 1
 2ea:	80 93 63 00 	sts	0x0063, r24
 2ee:	08 95       	ret
 2f0:	90 91 62 00 	lds	r25, 0x0062
		}

		else if(sc == 0x05)					  // F1
 2f4:	85 30       	cpi	r24, 0x05	; 5
 2f6:	71 f4       	brne	.+28     	; 0x314 <decode+0x48>
		{
			if(mode == 0)
 2f8:	91 11       	cpse	r25, r1
 2fa:	03 c0       	rjmp	.+6      	; 0x302 <decode+0x36>
				mode = 1;					  // Enter scan code mode
 2fc:	81 e0       	ldi	r24, 0x01	; 1
 2fe:	80 93 62 00 	sts	0x0062, r24
			if(mode == 2)
 302:	80 91 62 00 	lds	r24, 0x0062
 306:	82 30       	cpi	r24, 0x02	; 2
 308:	09 f0       	breq	.+2      	; 0x30c <decode+0x40>
 30a:	5c c0       	rjmp	.+184    	; 0x3c4 <decode+0xf8>
				mode = 3;					  // Leave scan code mode
 30c:	83 e0       	ldi	r24, 0x03	; 3
 30e:	80 93 62 00 	sts	0x0062, r24
 312:	08 95       	ret
		}

		else
		{
			if(mode == 0 || mode == 3)		  // If ASCII mode
 314:	99 23       	and	r25, r25
 316:	19 f0       	breq	.+6      	; 0x31e <decode+0x52>
 318:	93 30       	cpi	r25, 0x03	; 3
 31a:	09 f0       	breq	.+2      	; 0x31e <decode+0x52>
 31c:	36 c0       	rjmp	.+108    	; 0x38a <decode+0xbe>
			{
				if(!shift)					  // If shift not pressed,
 31e:	90 91 63 00 	lds	r25, 0x0063
 322:	99 23       	and	r25, r25
 324:	11 f0       	breq	.+4      	; 0x32a <decode+0x5e>
 326:	90 e0       	ldi	r25, 0x00	; 0
 328:	1b c0       	rjmp	.+54     	; 0x360 <decode+0x94>
 32a:	90 e0       	ldi	r25, 0x00	; 0
				{							  // do a table look-up
					for(i = 0; (ch = pgm_read_byte(&unshifted[i][0])) != sc && ch; i++);
 32c:	29 2f       	mov	r18, r25
 32e:	30 e0       	ldi	r19, 0x00	; 0
 330:	f9 01       	movw	r30, r18
 332:	ee 0f       	add	r30, r30
 334:	ff 1f       	adc	r31, r31
 336:	e2 55       	subi	r30, 0x52	; 82
 338:	ff 4f       	sbci	r31, 0xFF	; 255
 33a:	e4 91       	lpm	r30, Z
 33c:	22 0f       	add	r18, r18
 33e:	33 1f       	adc	r19, r19
 340:	e8 13       	cpse	r30, r24
 342:	04 c0       	rjmp	.+8      	; 0x34c <decode+0x80>
					if (ch == sc)
					{
						put_kbbuff(pgm_read_byte(&unshifted[i][1]));
 344:	f9 01       	movw	r30, r18
 346:	e1 55       	subi	r30, 0x51	; 81
 348:	ff 4f       	sbci	r31, 0xFF	; 255
 34a:	19 c0       	rjmp	.+50     	; 0x37e <decode+0xb2>
		{
			if(mode == 0 || mode == 3)		  // If ASCII mode
			{
				if(!shift)					  // If shift not pressed,
				{							  // do a table look-up
					for(i = 0; (ch = pgm_read_byte(&unshifted[i][0])) != sc && ch; i++);
 34c:	ee 23       	and	r30, r30
 34e:	11 f0       	breq	.+4      	; 0x354 <decode+0x88>
 350:	9f 5f       	subi	r25, 0xFF	; 255
 352:	ec cf       	rjmp	.-40     	; 0x32c <decode+0x60>
					if (ch == sc)
 354:	81 11       	cpse	r24, r1
 356:	36 c0       	rjmp	.+108    	; 0x3c4 <decode+0xf8>
 358:	f5 cf       	rjmp	.-22     	; 0x344 <decode+0x78>
						put_kbbuff(pgm_read_byte(&unshifted[i][1]));
					}
				}							  // If shift pressed
				else
				{
					for(i = 0; (ch = pgm_read_byte(&shifted[i][0])) != sc && ch; i++);
 35a:	ee 23       	and	r30, r30
 35c:	99 f0       	breq	.+38     	; 0x384 <decode+0xb8>
 35e:	9f 5f       	subi	r25, 0xFF	; 255
 360:	29 2f       	mov	r18, r25
 362:	30 e0       	ldi	r19, 0x00	; 0
 364:	f9 01       	movw	r30, r18
 366:	ee 0f       	add	r30, r30
 368:	ff 1f       	adc	r31, r31
 36a:	ea 5d       	subi	r30, 0xDA	; 218
 36c:	ff 4f       	sbci	r31, 0xFF	; 255
 36e:	e4 91       	lpm	r30, Z
 370:	22 0f       	add	r18, r18
 372:	33 1f       	adc	r19, r19
 374:	e8 13       	cpse	r30, r24
 376:	f1 cf       	rjmp	.-30     	; 0x35a <decode+0x8e>
					if (ch == sc)
					{
						put_kbbuff( pgm_read_byte(&shifted[i][1]));
 378:	f9 01       	movw	r30, r18
 37a:	e9 5d       	subi	r30, 0xD9	; 217
 37c:	ff 4f       	sbci	r31, 0xFF	; 255
 37e:	84 91       	lpm	r24, Z
 380:	82 df       	rcall	.-252    	; 0x286 <put_kbbuff>
 382:	08 95       	ret
					}
				}							  // If shift pressed
				else
				{
					for(i = 0; (ch = pgm_read_byte(&shifted[i][0])) != sc && ch; i++);
					if (ch == sc)
 384:	81 11       	cpse	r24, r1
 386:	1e c0       	rjmp	.+60     	; 0x3c4 <decode+0xf8>
 388:	f7 cf       	rjmp	.-18     	; 0x378 <decode+0xac>
					}
				}
			}								  // Scan code mode
			else
			{
				print_hexbyte(sc);			  // Print scan code
 38a:	ef de       	rcall	.-546    	; 0x16a <print_hexbyte>
				put_kbbuff(' ');
 38c:	80 e2       	ldi	r24, 0x20	; 32
 38e:	7b df       	rcall	.-266    	; 0x286 <put_kbbuff>
				put_kbbuff(' ');
 390:	80 e2       	ldi	r24, 0x20	; 32
 392:	f6 cf       	rjmp	.-20     	; 0x380 <decode+0xb4>
			}
		}
	}
	else
	{
		is_up = 0;							  // Two 0xF0 in a row not allowed
 394:	10 92 64 00 	sts	0x0064, r1

		if(sc == 0x12 || sc == 0x59)		  // Left SHIFT or Right SHIFT
 398:	82 31       	cpi	r24, 0x12	; 18
 39a:	11 f0       	breq	.+4      	; 0x3a0 <decode+0xd4>
 39c:	89 35       	cpi	r24, 0x59	; 89
 39e:	19 f4       	brne	.+6      	; 0x3a6 <decode+0xda>
		{
			shift = 0;
 3a0:	10 92 63 00 	sts	0x0063, r1
 3a4:	08 95       	ret
		}

		else if(sc == 0x05)					  // F1
 3a6:	85 30       	cpi	r24, 0x05	; 5
 3a8:	69 f4       	brne	.+26     	; 0x3c4 <decode+0xf8>
		{
			if(mode == 1)
 3aa:	80 91 62 00 	lds	r24, 0x0062
 3ae:	81 30       	cpi	r24, 0x01	; 1
 3b0:	19 f4       	brne	.+6      	; 0x3b8 <decode+0xec>
				mode = 2;
 3b2:	82 e0       	ldi	r24, 0x02	; 2
 3b4:	80 93 62 00 	sts	0x0062, r24
			if(mode == 3)
 3b8:	80 91 62 00 	lds	r24, 0x0062
 3bc:	83 30       	cpi	r24, 0x03	; 3
 3be:	11 f4       	brne	.+4      	; 0x3c4 <decode+0xf8>
				mode = 0;
 3c0:	10 92 62 00 	sts	0x0062, r1
 3c4:	08 95       	ret

000003c6 <get_kbchar>:
int get_kbchar(void)
{
	int byte;

	// Wait for data
	while(kb_buffcnt == 0);
 3c6:	80 91 67 00 	lds	r24, 0x0067
 3ca:	88 23       	and	r24, r24
 3cc:	e1 f3       	breq	.-8      	; 0x3c6 <get_kbchar>
	// if (kb_buffcnt == 0)
	// {
	// 	return 0;
	// }

	uint8_t tmp = SREG;
 3ce:	4f b7       	in	r20, 0x3f	; 63
	cli();
 3d0:	f8 94       	cli

	// Get byte - Increment pointer
	byte = *kb_outptr++;
 3d2:	e0 91 ae 00 	lds	r30, 0x00AE
 3d6:	f0 91 af 00 	lds	r31, 0x00AF
 3da:	9f 01       	movw	r18, r30
 3dc:	2f 5f       	subi	r18, 0xFF	; 255
 3de:	3f 4f       	sbci	r19, 0xFF	; 255
 3e0:	30 93 af 00 	sts	0x00AF, r19
 3e4:	20 93 ae 00 	sts	0x00AE, r18
 3e8:	80 81       	ld	r24, Z
 3ea:	90 e0       	ldi	r25, 0x00	; 0

	// Pointer wrapping
	if (kb_outptr >= kb_buffer + KB_BUFF_SIZE)
 3ec:	2c 5a       	subi	r18, 0xAC	; 172
 3ee:	30 40       	sbci	r19, 0x00	; 0
 3f0:	30 f0       	brcs	.+12     	; 0x3fe <get_kbchar+0x38>
		kb_outptr = kb_buffer;
 3f2:	2c e9       	ldi	r18, 0x9C	; 156
 3f4:	30 e0       	ldi	r19, 0x00	; 0
 3f6:	30 93 af 00 	sts	0x00AF, r19
 3fa:	20 93 ae 00 	sts	0x00AE, r18

	// Decrement buffer count
	kb_buffcnt--;
 3fe:	20 91 67 00 	lds	r18, 0x0067
 402:	21 50       	subi	r18, 0x01	; 1
 404:	20 93 67 00 	sts	0x0067, r18

	SREG = tmp;
 408:	4f bf       	out	0x3f, r20	; 63

	return byte;
}
 40a:	08 95       	ret

0000040c <get_scbyte>:
int get_scbyte(void)
{
	int byte;

	// Wait for data
	while(sc_buffcnt == 0);
 40c:	80 91 b0 00 	lds	r24, 0x00B0
 410:	88 23       	and	r24, r24
 412:	e1 f3       	breq	.-8      	; 0x40c <get_scbyte>

	uint8_t tmp = SREG;
 414:	4f b7       	in	r20, 0x3f	; 63
	cli();
 416:	f8 94       	cli

	// Get byte - Increment pointer
	byte = *sc_outptr++;
 418:	e0 91 9a 00 	lds	r30, 0x009A
 41c:	f0 91 9b 00 	lds	r31, 0x009B
 420:	9f 01       	movw	r18, r30
 422:	2f 5f       	subi	r18, 0xFF	; 255
 424:	3f 4f       	sbci	r19, 0xFF	; 255
 426:	30 93 9b 00 	sts	0x009B, r19
 42a:	20 93 9a 00 	sts	0x009A, r18
 42e:	80 81       	ld	r24, Z
 430:	90 e0       	ldi	r25, 0x00	; 0

	// Pointer wrapping
	if (sc_outptr >= sc_buffer + SC_BUFF_SIZE)
 432:	2a 59       	subi	r18, 0x9A	; 154
 434:	30 40       	sbci	r19, 0x00	; 0
 436:	30 f0       	brcs	.+12     	; 0x444 <get_scbyte+0x38>
		sc_outptr = sc_buffer;
 438:	2a e6       	ldi	r18, 0x6A	; 106
 43a:	30 e0       	ldi	r19, 0x00	; 0
 43c:	30 93 9b 00 	sts	0x009B, r19
 440:	20 93 9a 00 	sts	0x009A, r18

	// Decrement buffer count
	sc_buffcnt--;
 444:	20 91 b0 00 	lds	r18, 0x00B0
 448:	21 50       	subi	r18, 0x01	; 1
 44a:	20 93 b0 00 	sts	0x00B0, r18

	SREG = tmp;
 44e:	4f bf       	out	0x3f, r20	; 63

	return byte;
}
 450:	08 95       	ret

00000452 <spiInitSlave>:
    Initialize USI as slave
*/
void spiInitSlave()
{
	//DO pin is configured for output
	CTRL_PORT |= _BV(DO_PIN);
 452:	be 9a       	sbi	0x17, 6	; 23

	CTRL_PORT |= _BV(PB0) | _BV(PB1);
 454:	87 b3       	in	r24, 0x17	; 23
 456:	83 60       	ori	r24, 0x03	; 3
 458:	87 bb       	out	0x17, r24	; 23

	// SS as input
	CTRL_PORT &= ~(1 << SS_PIN);
 45a:	bc 98       	cbi	0x17, 4	; 23
	// Enable pin change interrupt for SS_PIN
	// PCMSK |= (1<<PCINT4	);	
	// GIMSK |= (1<<PCIE);	

	// pullup on (DI)
	DATA_PORT |= _BV(DI_PIN); 
 45c:	c5 9a       	sbi	0x18, 5	; 24
	
	// RESET
	DATA_PORT |= _BV(PB0); 
 45e:	c0 9a       	sbi	0x18, 0	; 24

	// NMI
	DATA_PORT |= _BV(PB1); 
 460:	c1 9a       	sbi	0x18, 1	; 24

	//Clear overflow flag
	USISR = _BV(USIOIF);
 462:	80 e4       	ldi	r24, 0x40	; 64
 464:	8e b9       	out	0x0e, r24	; 14

	//Set three wire mode and set
	//clock to External, positive edge.
	USICR = _BV(USIWM0) | (0 << USICS0) | _BV(USICS1);
 466:	88 e1       	ldi	r24, 0x18	; 24
 468:	8d b9       	out	0x0d, r24	; 13
	// USICR = (1<<USIOIE) | _BV(USIWM0) | _BV(USICS1);
	


	transferComplete 	= 0;
 46a:	10 92 b2 00 	sts	0x00B2, r1
	slaveSelect			= 1;
 46e:	81 e0       	ldi	r24, 0x01	; 1
 470:	80 93 b1 00 	sts	0x00B1, r24
 474:	08 95       	ret

00000476 <spiTransfer>:
{
	static uint8_t key;
	static uint8_t tmp = 0;
	
	
	USIDR = val;	
 476:	8f b9       	out	0x0f, r24	; 15
	//Clear the overflow flag
	USISR = _BV(USIOIF);
 478:	80 e4       	ldi	r24, 0x40	; 64
 47a:	8e b9       	out	0x0e, r24	; 14

	while ((USISR & (1 << USIOIF)) == 0) {}; // Do nothing until USI has data ready
 47c:	76 9b       	sbis	0x0e, 6	; 14
 47e:	fe cf       	rjmp	.-4      	; 0x47c <spiTransfer+0x6>
	key = USIDR;
 480:	8f b1       	in	r24, 0x0f	; 15
 482:	80 93 66 00 	sts	0x0066, r24
	
	return key;
}
 486:	08 95       	ret

00000488 <main>:
	uint8_t key;
	

	// Initializes UART transmit buffer and keyboard reception
	// init_uart();
	init_kb();
 488:	91 de       	rcall	.-734    	; 0x1ac <init_kb>
	spiInitSlave();
 48a:	e3 df       	rcall	.-58     	; 0x452 <spiInitSlave>
	sei();
 48c:	78 94       	sei

	while(1)
	{

		while (PINB & (1 << SS_PIN)) {};
 48e:	b4 99       	sbic	0x16, 4	; 22
 490:	fe cf       	rjmp	.-4      	; 0x48e <main+0x6>
		
		//decode(get_scbyte());
		// key = get_kbchar();

		spiTransfer(get_scbyte());	
 492:	bc df       	rcall	.-136    	; 0x40c <get_scbyte>
 494:	f0 df       	rcall	.-32     	; 0x476 <spiTransfer>
		
	}
 496:	fb cf       	rjmp	.-10     	; 0x48e <main+0x6>

00000498 <putchar>:
 498:	60 91 b5 00 	lds	r22, 0x00B5
 49c:	70 91 b6 00 	lds	r23, 0x00B6
 4a0:	01 d0       	rcall	.+2      	; 0x4a4 <fputc>
 4a2:	08 95       	ret

000004a4 <fputc>:
 4a4:	0f 93       	push	r16
 4a6:	1f 93       	push	r17
 4a8:	cf 93       	push	r28
 4aa:	df 93       	push	r29
 4ac:	18 2f       	mov	r17, r24
 4ae:	09 2f       	mov	r16, r25
 4b0:	eb 01       	movw	r28, r22
 4b2:	8b 81       	ldd	r24, Y+3	; 0x03
 4b4:	81 fd       	sbrc	r24, 1
 4b6:	03 c0       	rjmp	.+6      	; 0x4be <fputc+0x1a>
 4b8:	8f ef       	ldi	r24, 0xFF	; 255
 4ba:	9f ef       	ldi	r25, 0xFF	; 255
 4bc:	20 c0       	rjmp	.+64     	; 0x4fe <fputc+0x5a>
 4be:	82 ff       	sbrs	r24, 2
 4c0:	10 c0       	rjmp	.+32     	; 0x4e2 <fputc+0x3e>
 4c2:	4e 81       	ldd	r20, Y+6	; 0x06
 4c4:	5f 81       	ldd	r21, Y+7	; 0x07
 4c6:	2c 81       	ldd	r18, Y+4	; 0x04
 4c8:	3d 81       	ldd	r19, Y+5	; 0x05
 4ca:	42 17       	cp	r20, r18
 4cc:	53 07       	cpc	r21, r19
 4ce:	7c f4       	brge	.+30     	; 0x4ee <fputc+0x4a>
 4d0:	e8 81       	ld	r30, Y
 4d2:	f9 81       	ldd	r31, Y+1	; 0x01
 4d4:	9f 01       	movw	r18, r30
 4d6:	2f 5f       	subi	r18, 0xFF	; 255
 4d8:	3f 4f       	sbci	r19, 0xFF	; 255
 4da:	39 83       	std	Y+1, r19	; 0x01
 4dc:	28 83       	st	Y, r18
 4de:	10 83       	st	Z, r17
 4e0:	06 c0       	rjmp	.+12     	; 0x4ee <fputc+0x4a>
 4e2:	e8 85       	ldd	r30, Y+8	; 0x08
 4e4:	f9 85       	ldd	r31, Y+9	; 0x09
 4e6:	81 2f       	mov	r24, r17
 4e8:	09 95       	icall
 4ea:	89 2b       	or	r24, r25
 4ec:	29 f7       	brne	.-54     	; 0x4b8 <fputc+0x14>
 4ee:	2e 81       	ldd	r18, Y+6	; 0x06
 4f0:	3f 81       	ldd	r19, Y+7	; 0x07
 4f2:	2f 5f       	subi	r18, 0xFF	; 255
 4f4:	3f 4f       	sbci	r19, 0xFF	; 255
 4f6:	3f 83       	std	Y+7, r19	; 0x07
 4f8:	2e 83       	std	Y+6, r18	; 0x06
 4fa:	81 2f       	mov	r24, r17
 4fc:	90 2f       	mov	r25, r16
 4fe:	df 91       	pop	r29
 500:	cf 91       	pop	r28
 502:	1f 91       	pop	r17
 504:	0f 91       	pop	r16
 506:	08 95       	ret

00000508 <_exit>:
 508:	f8 94       	cli

0000050a <__stop_program>:
 50a:	ff cf       	rjmp	.-2      	; 0x50a <__stop_program>
